target datalayout = "e-m:e-p270:32:32-p271:32:32-p272:64:64-i64:64-i128:128-f80:128-n8:16:32:64-S128"
target triple = "x86_64-unknown-linux-gnu"

%"class.node::quic::QuicError" = type { %"class.node::MemoryRetainer", %"class.std::__cxx11::basic_string", %struct.ngtcp2_connection_close_error, ptr }
%"class.node::MemoryRetainer" = type { ptr }
%"class.std::__cxx11::basic_string" = type { %"struct.std::__cxx11::basic_string<char>::_Alloc_hider", i64, %union.anon }
%"struct.std::__cxx11::basic_string<char>::_Alloc_hider" = type { ptr }
%union.anon = type { i64, [8 x i8] }
%struct.ngtcp2_connection_close_error = type { i32, i64, i64, ptr, i64 }
%"struct.node::AssertionInfo" = type { ptr, ptr, ptr }
%"class.node::SocketAddress" = type { %"class.node::MemoryRetainer", %struct.sockaddr_storage }
%struct.sockaddr_storage = type { i16, [118 x i8], i64 }
%"class.node::quic::TransportParams" = type { i32, %struct.ngtcp2_transport_params, ptr, %"class.node::quic::QuicError" }
%struct.ngtcp2_transport_params = type { %struct.ngtcp2_preferred_addr, %struct.ngtcp2_cid, %struct.ngtcp2_cid, %struct.ngtcp2_cid, i64, i64, i64, i64, i64, i64, i64, i64, i64, i64, i64, i64, i8, i8, i8, i8, [16 x i8], i8, %struct.ngtcp2_version_info, i8 }
%struct.ngtcp2_preferred_addr = type { %struct.ngtcp2_cid, i16, i16, [4 x i8], [16 x i8], i8, i8, [16 x i8] }
%struct.ngtcp2_cid = type { i64, [20 x i8] }
%struct.ngtcp2_version_info = type { i32, ptr, i64 }
%struct.sockaddr_in = type { i16, i16, %struct.in_addr, [8 x i8] }
%struct.in_addr = type { i32 }
%struct.sockaddr_in6 = type { i16, i16, i32, %struct.in6_addr, i32 }
%struct.in6_addr = type { %union.anon.320 }
%union.anon.320 = type { [4 x i32] }
%struct.sockaddr = type { i16, [14 x i8] }

@_ZZN4node4quic15TransportParams19SetPreferredAddressERKNS_13SocketAddressEE4args = internal constant %"struct.node::AssertionInfo" { ptr @.str.7, ptr @.str.8, ptr @.str.9 }, align 8
@_ZZN4node13SocketAddress7GetPortEPK8sockaddrE4args = linkonce_odr dso_local constant %"struct.node::AssertionInfo" { ptr @.str.28, ptr @.str.29, ptr @.str.30 }, comdat, align 8

; Function Attrs: mustprogress nounwind uwtable
define linkonce_odr dso_local noundef i32 @_ZN4node13SocketAddress7GetPortEPK8sockaddr(ptr noundef %addr) #4 comdat align 2 {
entry:
  %addr.addr = alloca ptr, align 8
  store ptr %addr, ptr %addr.addr, align 8
  br label %do.body

do.body:                                          ; preds = %entry
  %0 = load ptr, ptr %addr.addr, align 8
  %sa_family = getelementptr inbounds %struct.sockaddr, ptr %0, i32 0, i32 0
  %1 = load i16, ptr %sa_family, align 2
  %conv = zext i16 %1 to i32
  %cmp = icmp eq i32 %conv, 2
  br i1 %cmp, label %lor.end, label %lor.rhs

lor.rhs:                                          ; preds = %do.body
  %2 = load ptr, ptr %addr.addr, align 8
  %sa_family1 = getelementptr inbounds %struct.sockaddr, ptr %2, i32 0, i32 0
  %3 = load i16, ptr %sa_family1, align 2
  %conv2 = zext i16 %3 to i32
  %cmp3 = icmp eq i32 %conv2, 10
  br label %lor.end

lor.end:                                          ; preds = %lor.rhs, %do.body
  %4 = phi i1 [ true, %do.body ], [ %cmp3, %lor.rhs ]
  %lnot = xor i1 %4, true
  %lnot4 = xor i1 %lnot, true
  %lnot5 = xor i1 %lnot4, true
  br i1 %lnot5, label %if.then, label %if.end

if.then:                                          ; preds = %lor.end
  br label %do.body7

do.body7:                                         ; preds = %if.then
  call void @_ZN4node6AssertERKNS_13AssertionInfoE(ptr noundef nonnull align 8 dereferenceable(24) @_ZZN4node13SocketAddress7GetPortEPK8sockaddrE4args)
  call void @abort() #16
  unreachable

do.end:                                           ; No predecessors!
  br label %if.end

if.end:                                           ; preds = %do.end, %lor.end
  br label %do.end8

do.end8:                                          ; preds = %if.end
  %5 = load ptr, ptr %addr.addr, align 8
  %sa_family9 = getelementptr inbounds %struct.sockaddr, ptr %5, i32 0, i32 0
  %6 = load i16, ptr %sa_family9, align 2
  %conv10 = zext i16 %6 to i32
  %cmp11 = icmp eq i32 %conv10, 2
  br i1 %cmp11, label %cond.true, label %cond.false

cond.true:                                        ; preds = %do.end8
  %7 = load ptr, ptr %addr.addr, align 8
  %sin_port = getelementptr inbounds %struct.sockaddr_in, ptr %7, i32 0, i32 1
  %8 = load i16, ptr %sin_port, align 2
  br label %cond.end

cond.false:                                       ; preds = %do.end8
  %9 = load ptr, ptr %addr.addr, align 8
  %sin6_port = getelementptr inbounds %struct.sockaddr_in6, ptr %9, i32 0, i32 1
  %10 = load i16, ptr %sin6_port, align 2
  br label %cond.end

cond.end:                                         ; preds = %cond.false, %cond.true
  %cond = phi i16 [ %8, %cond.true ], [ %10, %cond.false ]
  %call = call zeroext i16 @ntohs(i16 noundef zeroext %cond) #20
  %conv12 = zext i16 %call to i32
  ret i32 %conv12
}

; Function Attrs: mustprogress nounwind uwtable
define linkonce_odr dso_local noundef i32 @_ZN4node13SocketAddress7GetPortEPK16sockaddr_storage(ptr noundef %addr) #4 comdat align 2 {
entry:
  %addr.addr = alloca ptr, align 8
  store ptr %addr, ptr %addr.addr, align 8
  %0 = load ptr, ptr %addr.addr, align 8
  %call = call noundef i32 @_ZN4node13SocketAddress7GetPortEPK8sockaddr(ptr noundef %0)
  ret i32 %call
}

; Function Attrs: mustprogress nounwind uwtable
define linkonce_odr dso_local noundef i32 @_ZNK4node13SocketAddress4portEv(ptr noundef nonnull align 8 dereferenceable(136) %this) #4 comdat align 2 {
entry:
  %this.addr = alloca ptr, align 8
  store ptr %this, ptr %this.addr, align 8
  %this1 = load ptr, ptr %this.addr, align 8
  %address_ = getelementptr inbounds %"class.node::SocketAddress", ptr %this1, i32 0, i32 1
  %call = call noundef i32 @_ZN4node13SocketAddress7GetPortEPK16sockaddr_storage(ptr noundef %address_)
  ret i32 %call
}

; Function Attrs: mustprogress nounwind uwtable
define linkonce_odr dso_local noundef ptr @_ZNK4node13SocketAddress4dataEv(ptr noundef nonnull align 8 dereferenceable(136) %this) #4 comdat align 2 {
entry:
  %this.addr = alloca ptr, align 8
  store ptr %this, ptr %this.addr, align 8
  %this1 = load ptr, ptr %this.addr, align 8
  %address_ = getelementptr inbounds %"class.node::SocketAddress", ptr %this1, i32 0, i32 1
  ret ptr %address_
}

; Function Attrs: mustprogress nounwind uwtable
define linkonce_odr dso_local noundef i32 @_ZNK4node13SocketAddress6familyEv(ptr noundef nonnull align 8 dereferenceable(136) %this) #4 comdat align 2 {
entry:
  %this.addr = alloca ptr, align 8
  store ptr %this, ptr %this.addr, align 8
  %this1 = load ptr, ptr %this.addr, align 8
  %address_ = getelementptr inbounds %"class.node::SocketAddress", ptr %this1, i32 0, i32 1
  %ss_family = getelementptr inbounds %struct.sockaddr_storage, ptr %address_, i32 0, i32 0
  %0 = load i16, ptr %ss_family, align 8
  %conv = zext i16 %0 to i32
  ret i32 %conv
}

; Function Attrs: mustprogress nounwind uwtable
define dso_local void @_ZN4node4quic15TransportParams19SetPreferredAddressERKNS_13SocketAddressE(ptr noundef nonnull align 8 dereferenceable(432) %this, ptr noundef nonnull align 8 dereferenceable(136) %address) #4 align 2 {
entry:
  %this.addr = alloca ptr, align 8
  %address.addr = alloca ptr, align 8
  %src = alloca ptr, align 8
  %src8 = alloca ptr, align 8
  store ptr %this, ptr %this.addr, align 8
  store ptr %address, ptr %address.addr, align 8
  %this1 = load ptr, ptr %this.addr, align 8
  %params_ = getelementptr inbounds %"class.node::quic::TransportParams", ptr %this1, i32 0, i32 1
  %preferred_address_present = getelementptr inbounds %struct.ngtcp2_transport_params, ptr %params_, i32 0, i32 19
  store i8 1, ptr %preferred_address_present, align 1
  %0 = load ptr, ptr %address.addr, align 8
  %call = call noundef i32 @_ZNK4node13SocketAddress6familyEv(ptr noundef nonnull align 8 dereferenceable(136) %0)
  switch i32 %call, label %sw.epilog [
    i32 2, label %sw.bb
    i32 10, label %sw.bb7
  ]

sw.bb:                                            ; preds = %entry
  %1 = load ptr, ptr %address.addr, align 8
  %call2 = call noundef ptr @_ZNK4node13SocketAddress4dataEv(ptr noundef nonnull align 8 dereferenceable(136) %1)
  store ptr %call2, ptr %src, align 8
  %params_3 = getelementptr inbounds %"class.node::quic::TransportParams", ptr %this1, i32 0, i32 1
  %preferred_address = getelementptr inbounds %struct.ngtcp2_transport_params, ptr %params_3, i32 0, i32 0
  %ipv4_addr = getelementptr inbounds %struct.ngtcp2_preferred_addr, ptr %preferred_address, i32 0, i32 3
  %arraydecay = getelementptr inbounds [4 x i8], ptr %ipv4_addr, i64 0, i64 0
  %2 = load ptr, ptr %src, align 8
  %sin_addr = getelementptr inbounds %struct.sockaddr_in, ptr %2, i32 0, i32 2
  call void @llvm.memcpy.p0.p0.i64(ptr align 4 %arraydecay, ptr align 4 %sin_addr, i64 4, i1 false)
  %3 = load ptr, ptr %address.addr, align 8
  %call4 = call noundef i32 @_ZNK4node13SocketAddress4portEv(ptr noundef nonnull align 8 dereferenceable(136) %3)
  %conv = trunc i32 %call4 to i16
  %params_5 = getelementptr inbounds %"class.node::quic::TransportParams", ptr %this1, i32 0, i32 1
  %preferred_address6 = getelementptr inbounds %struct.ngtcp2_transport_params, ptr %params_5, i32 0, i32 0
  %ipv4_port = getelementptr inbounds %struct.ngtcp2_preferred_addr, ptr %preferred_address6, i32 0, i32 1
  store i16 %conv, ptr %ipv4_port, align 8
  br label %do.end

sw.bb7:                                           ; preds = %entry
  %4 = load ptr, ptr %address.addr, align 8
  %call9 = call noundef ptr @_ZNK4node13SocketAddress4dataEv(ptr noundef nonnull align 8 dereferenceable(136) %4)
  store ptr %call9, ptr %src8, align 8
  %params_10 = getelementptr inbounds %"class.node::quic::TransportParams", ptr %this1, i32 0, i32 1
  %preferred_address11 = getelementptr inbounds %struct.ngtcp2_transport_params, ptr %params_10, i32 0, i32 0
  %ipv6_addr = getelementptr inbounds %struct.ngtcp2_preferred_addr, ptr %preferred_address11, i32 0, i32 4
  %arraydecay12 = getelementptr inbounds [16 x i8], ptr %ipv6_addr, i64 0, i64 0
  %5 = load ptr, ptr %src8, align 8
  %sin6_addr = getelementptr inbounds %struct.sockaddr_in6, ptr %5, i32 0, i32 3
  call void @llvm.memcpy.p0.p0.i64(ptr align 8 %arraydecay12, ptr align 4 %sin6_addr, i64 16, i1 false)
  %6 = load ptr, ptr %address.addr, align 8
  %call13 = call noundef i32 @_ZNK4node13SocketAddress4portEv(ptr noundef nonnull align 8 dereferenceable(136) %6)
  %conv14 = trunc i32 %call13 to i16
  %params_15 = getelementptr inbounds %"class.node::quic::TransportParams", ptr %this1, i32 0, i32 1
  %preferred_address16 = getelementptr inbounds %struct.ngtcp2_transport_params, ptr %params_15, i32 0, i32 0
  %ipv6_port = getelementptr inbounds %struct.ngtcp2_preferred_addr, ptr %preferred_address16, i32 0, i32 2
  store i16 %conv14, ptr %ipv6_port, align 2
  br label %do.end

sw.epilog:                                        ; preds = %entry
  br label %do.body

do.body:                                          ; preds = %sw.epilog
  call void @_ZN4node6AssertERKNS_13AssertionInfoE(ptr noundef nonnull align 8 dereferenceable(24) @_ZZN4node4quic15TransportParams19SetPreferredAddressERKNS_13SocketAddressEE4args)
  call void @abort() #16
  unreachable

do.end:                                           ; preds = %sw.bb7, %sw.bb
  ret void
}