; Function Attrs: mustprogress nounwind uwtable
define dso_local void @_ZN4node4quic15TransportParams19SetPreferredAddressERKNS_13SocketAddressE(ptr nocapture noundef nonnull writeonly align 8 dereferenceable(432) %this, ptr nocapture noundef nonnull readonly align 8 dereferenceable(136) %address) local_unnamed_addr #3 align 2 {
entry:
  %preferred_address_present = getelementptr inbounds i8, ptr %this, i64 283
  store i8 1, ptr %preferred_address_present, align 1
  %address_.i = getelementptr inbounds i8, ptr %address, i64 8
  %0 = load i16, ptr %address_.i, align 8
  switch i16 %0, label %do.body [
    i16 2, label %sw.bb
    i16 10, label %sw.bb7
  ]

sw.bb:                                            ; preds = %entry
  %ipv4_addr = getelementptr inbounds i8, ptr %this, i64 44
  %sin_addr = getelementptr inbounds i8, ptr %address, i64 12
  %1 = load i32, ptr %sin_addr, align 4
  store i32 %1, ptr %ipv4_addr, align 4
  %2 = load i16, ptr %address_.i, align 8
  %3 = and i16 %2, -9
  %spec.select.not.i.i.i = icmp eq i16 %3, 2
  br i1 %spec.select.not.i.i.i, label %_ZNK4node13SocketAddress4portEv.exit, label %do.body7.i.i.i

do.body7.i.i.i:                                   ; preds = %sw.bb
  tail call void @_ZN4node6AssertERKNS_13AssertionInfoE(ptr noundef nonnull align 8 dereferenceable(24) @_ZZN4node13SocketAddress7GetPortEPK8sockaddrE4args) #19
  tail call void @abort() #20
  unreachable

_ZNK4node13SocketAddress4portEv.exit:             ; preds = %sw.bb
  %cond.in.i.i.i = getelementptr inbounds i8, ptr %address, i64 10
  %cond.i.i.i = load i16, ptr %cond.in.i.i.i, align 2
  %call.i.i.i = tail call zeroext i16 @ntohs(i16 noundef zeroext %cond.i.i.i) #21
  %ipv4_port = getelementptr inbounds i8, ptr %this, i64 40
  store i16 %call.i.i.i, ptr %ipv4_port, align 8
  br label %do.end

sw.bb7:                                           ; preds = %entry
  %ipv6_addr = getelementptr inbounds i8, ptr %this, i64 48
  %sin6_addr = getelementptr inbounds i8, ptr %address, i64 16
  tail call void @llvm.memcpy.p0.p0.i64(ptr noundef nonnull align 8 dereferenceable(16) %ipv6_addr, ptr noundef nonnull align 8 dereferenceable(16) %sin6_addr, i64 16, i1 false)
  %4 = load i16, ptr %address_.i, align 8
  %5 = and i16 %4, -9
  %spec.select.not.i.i.i9 = icmp eq i16 %5, 2
  br i1 %spec.select.not.i.i.i9, label %_ZNK4node13SocketAddress4portEv.exit15, label %do.body7.i.i.i10

do.body7.i.i.i10:                                 ; preds = %sw.bb7
  tail call void @_ZN4node6AssertERKNS_13AssertionInfoE(ptr noundef nonnull align 8 dereferenceable(24) @_ZZN4node13SocketAddress7GetPortEPK8sockaddrE4args) #19
  tail call void @abort() #20
  unreachable

_ZNK4node13SocketAddress4portEv.exit15:           ; preds = %sw.bb7
  %cond.in.i.i.i11 = getelementptr inbounds i8, ptr %address, i64 10
  %cond.i.i.i12 = load i16, ptr %cond.in.i.i.i11, align 2
  %call.i.i.i13 = tail call zeroext i16 @ntohs(i16 noundef zeroext %cond.i.i.i12) #21
  %ipv6_port = getelementptr inbounds i8, ptr %this, i64 42
  store i16 %call.i.i.i13, ptr %ipv6_port, align 2
  br label %do.end

do.body:                                          ; preds = %entry
  tail call void @_ZN4node6AssertERKNS_13AssertionInfoE(ptr noundef nonnull align 8 dereferenceable(24) @_ZZN4node4quic15TransportParams19SetPreferredAddressERKNS_13SocketAddressEE4args) #19
  tail call void @abort() #20
  unreachable

do.end:                                           ; preds = %_ZNK4node13SocketAddress4portEv.exit15, %_ZNK4node13SocketAddress4portEv.exit
  ret void
}